; Function Attrs: mustprogress uwtable
define noundef nonnull align 8 dereferenceable(8) ptr @_ZN9grpc_core6chttp2lsERSoNS0_17FlowControlAction7UrgencyE(ptr noundef nonnull returned align 8 dereferenceable(8) %0, i8 noundef zeroext %1) local_unnamed_addr #3 {
  %3 = icmp ult i8 %1, 3
  br i1 %3, label %switch.lookup, label %4

4:                                                ; preds = %2
  tail call void @gpr_unreachable_code(ptr noundef nonnull @.str.3, ptr noundef nonnull @.str.4, i32 noundef 62) #27
  unreachable

switch.lookup:                                    ; preds = %2
  %5 = zext nneg i8 %1 to i64
  %switch.gep = getelementptr inbounds nuw [3 x ptr], ptr @switch.table._ZNK9grpc_core6chttp217FlowControlAction11DebugStringB5cxx11Ev.4, i64 0, i64 %5
  %switch.load = load ptr, ptr %switch.gep, align 8
  %6 = tail call noundef i64 @strlen(ptr noundef nonnull dereferenceable(1) %switch.load) #28
  %7 = tail call noundef nonnull align 8 dereferenceable(8) ptr @_ZSt16__ostream_insertIcSt11char_traitsIcEERSt13basic_ostreamIT_T0_ES6_PKS3_l(ptr noundef nonnull align 8 dereferenceable(8) %0, ptr noundef nonnull %switch.load, i64 noundef %6)
  ret ptr %0
}